ccopy_reg
_reconstructor
p0
(csklearn.linear_model.base
LinearRegression
p1
c__builtin__
object
p2
Ntp3
Rp4
(dp5
S'normalize'
p6
I00
sS'n_jobs'
p7
NsS'rank_'
p8
I5
sS'fit_intercept'
p9
I01
sS'_residues'
p10
cnumpy.core.multiarray
scalar
p11
(cnumpy
dtype
p12
(S'f8'
p13
I0
I1
tp14
Rp15
(I3
S'<'
p16
NNNI-1
I-1
I0
tp17
bS'\xb4+\xaab\x0c\x82^@'
p18
tp19
Rp20
sS'coef_'
p21
cnumpy.core.multiarray
_reconstruct
p22
(cnumpy
ndarray
p23
(I0
tp24
S'b'
p25
tp26
Rp27
(I1
(I5
tp28
g15
I00
S'\xae\xf4S\xf0T\x1f\xd3?\x00\xba\xfa\x1b-\xfen\xbf\xde\xde\xaf\x8a\x87\xc8\xc5?X\xc2+\x7f\x86B\xf0?$\x02\xb8epP\xe2?'
p29
tp30
bsS'_sklearn_version'
p31
S'0.20.4'
p32
sS'copy_X'
p33
I01
sS'intercept_'
p34
g11
(g15
S'B\x84~\xe3\x87\x85$\xc0'
p35
tp36
Rp37
sS'singular_'
p38
g22
(g23
(I0
tp39
g25
tp40
Rp41
(I1
(I5
tp42
g15
I00
S'Bg~\xb1\xc3\x83?@#\x85\x86\x99\x83\xd2.@Tg?\x93\xa4l)@\xeb \xea\xeb\xd5\xfb\x1c@\xe0WE\xe9\xb0,\x14@'
p43
tp44
bsb.